; Function Attrs: mustprogress nounwind uwtable
define noundef ptr @_ZNK5folly10symbolizer7ElfFile17getSectionByIndexEm(ptr noundef nonnull align 8 dereferenceable(576) %0, i64 noundef %1) local_unnamed_addr #4 align 2 personality ptr @__gxx_personality_v0 {
  %3 = getelementptr inbounds nuw i8, ptr %0, i64 528
  %4 = load i64, ptr %3, align 8, !tbaa !39
  %.not.i.i = icmp ult i64 %4, 64
  br i1 %.not.i.i, label %5, label %_ZNK5folly10symbolizer7ElfFile9elfHeaderEv.exit

5:                                                ; preds = %2
  tail call void (ptr, ...) @_ZN5folly6detail21safe_assert_terminateILb0EEEvPKNS0_15safe_assert_argEz(ptr noundef nonnull @_ZZNK5folly10symbolizer7ElfFile2atI10Elf64_EhdrEERKT_mE30__folly_detail_safe_assert_arg, ptr noundef nonnull @.str.29, i64 noundef 0, ptr noundef nonnull @.str.30, i64 noundef 64, ptr noundef nonnull @.str.31, ptr noundef nonnull align 8 dereferenceable(576) %0, ptr noundef nonnull @.str.32, i64 noundef %4) #30
  unreachable

_ZNK5folly10symbolizer7ElfFile9elfHeaderEv.exit:  ; preds = %2
  %6 = getelementptr inbounds nuw i8, ptr %0, i64 520
  %7 = load ptr, ptr %6, align 8, !tbaa !17
  %8 = getelementptr inbounds nuw i8, ptr %7, i64 60
  %9 = load i16, ptr %8, align 4, !tbaa !78
  %10 = zext i16 %9 to i64
  %11 = icmp ult i64 %1, %10
  br i1 %11, label %_ZNK5folly10symbolizer7ElfFile9elfHeaderEv.exit6, label %12

12:                                               ; preds = %_ZNK5folly10symbolizer7ElfFile9elfHeaderEv.exit
  tail call void (ptr, ...) @_ZN5folly6detail21safe_assert_terminateILb0EEEvPKNS0_15safe_assert_argEz(ptr noundef nonnull @_ZZNK5folly10symbolizer7ElfFile17getSectionByIndexEmE30__folly_detail_safe_assert_arg, ptr noundef nonnull @.str.35) #30
  unreachable

_ZNK5folly10symbolizer7ElfFile9elfHeaderEv.exit6: ; preds = %_ZNK5folly10symbolizer7ElfFile9elfHeaderEv.exit
  %13 = getelementptr inbounds nuw i8, ptr %7, i64 40
  %14 = load i64, ptr %13, align 8, !tbaa !79
  %15 = shl nuw nsw i64 %1, 6
  %16 = add i64 %14, %15
  %17 = add i64 %16, 64
  %18 = icmp ugt i64 %17, %4
  %19 = getelementptr inbounds nuw i8, ptr %7, i64 %16
  %spec.select = select i1 %18, ptr null, ptr %19
  ret ptr %spec.select
}